target datalayout = "e-m:e-p270:32:32-p271:32:32-p272:64:64-i64:64-i128:128-f80:128-n8:16:32:64-S128"
target triple = "x86_64-pc-linux-gnu"

%struct.PJconsts = type { ptr, ptr, ptr, ptr, ptr, ptr, ptr, ptr, ptr, ptr, ptr, ptr, i32, ptr, ptr, ptr, ptr, ptr, ptr, ptr, ptr, double, double, double, double, double, double, double, double, double, double, double, double, double, double, double, double, double, double, double, double, double, double, i32, i32, i32, i32, i32, i32, i32, i32, i32, i32, i32, ptr, ptr, ptr, ptr, ptr, ptr, double, double, double, double, double, double, double, double, double, double, double, i32, [7 x double], i32, ptr, ptr, double, double, i32, [4 x i8], %"class.std::shared_ptr", i8, double, i8, %"class.std::__cxx11::basic_string", %"class.std::__cxx11::basic_string", %"class.std::__cxx11::basic_string", i8, %"class.std::vector", i32, %"class.std::vector.3", i32, i8, i8, i8, ptr }
%"class.std::shared_ptr" = type { %"class.std::__shared_ptr" }
%"class.std::__shared_ptr" = type { ptr, %"class.std::__shared_count" }
%"class.std::__shared_count" = type { ptr }
%"class.std::__cxx11::basic_string" = type { %"struct.std::__cxx11::basic_string<char>::_Alloc_hider", i64, %union.anon }
%"struct.std::__cxx11::basic_string<char>::_Alloc_hider" = type { ptr }
%union.anon = type { i64, [8 x i8] }
%"class.std::vector" = type { %"struct.std::_Vector_base" }
%"struct.std::_Vector_base" = type { %"struct.std::_Vector_base<osgeo::proj::operation::GridDescription, std::allocator<osgeo::proj::operation::GridDescription>>::_Vector_impl" }
%"struct.std::_Vector_base<osgeo::proj::operation::GridDescription, std::allocator<osgeo::proj::operation::GridDescription>>::_Vector_impl" = type { %"struct.std::_Vector_base<osgeo::proj::operation::GridDescription, std::allocator<osgeo::proj::operation::GridDescription>>::_Vector_impl_data" }
%"struct.std::_Vector_base<osgeo::proj::operation::GridDescription, std::allocator<osgeo::proj::operation::GridDescription>>::_Vector_impl_data" = type { ptr, ptr, ptr }
%"class.std::vector.3" = type { %"struct.std::_Vector_base.4" }
%"struct.std::_Vector_base.4" = type { %"struct.std::_Vector_base<PJCoordOperation, std::allocator<PJCoordOperation>>::_Vector_impl" }
%"struct.std::_Vector_base<PJCoordOperation, std::allocator<PJCoordOperation>>::_Vector_impl" = type { %"struct.std::_Vector_base<PJCoordOperation, std::allocator<PJCoordOperation>>::_Vector_impl_data" }
%"struct.std::_Vector_base<PJCoordOperation, std::allocator<PJCoordOperation>>::_Vector_impl_data" = type { ptr, ptr, ptr }
%union.PROJVALUE = type { double }
%"struct.(anonymous namespace)::pj_som_data" = type { double, double, double, double, double, double, double, double, double, double, double, double, double, double, double, double }

@.str.1 = private unnamed_addr constant [9 x i8] c"rasc_lon\00", align 1
@.str.2 = private unnamed_addr constant [70 x i8] c"Invalid value for ascending longitude: should be in [-2pi, 2pi] range\00", align 1
@.str.3 = private unnamed_addr constant [11 x i8] c"rinc_angle\00", align 1
@.str.4 = private unnamed_addr constant [64 x i8] c"Invalid value for inclination angle: should be in [0, pi] range\00", align 1
@.str.5 = private unnamed_addr constant [8 x i8] c"dps_rev\00", align 1
@.str.6 = private unnamed_addr constant [47 x i8] c"Number of days per rotation should be positive\00", align 1

; Function Attrs: mustprogress uwtable
define hidden noundef ptr @_Z32pj_projection_specific_setup_somP8PJconsts(ptr noundef %0) #0 {
  %2 = alloca ptr, align 8
  %3 = alloca ptr, align 8
  %4 = alloca ptr, align 8
  %5 = alloca i32, align 4
  %6 = alloca %union.PROJVALUE, align 8
  %7 = alloca %union.PROJVALUE, align 8
  %8 = alloca %union.PROJVALUE, align 8
  store ptr %0, ptr %3, align 8, !tbaa !3
  call void @llvm.lifetime.start.p0(i64 8, ptr %4) #9
  %9 = call noalias ptr @calloc(i64 noundef 1, i64 noundef 128) #10
  store ptr %9, ptr %4, align 8, !tbaa !41
  %10 = load ptr, ptr %4, align 8, !tbaa !41
  %11 = icmp eq ptr null, %10
  br i1 %11, label %12, label %15

12:                                               ; preds = %1
  %13 = load ptr, ptr %3, align 8, !tbaa !3
  %14 = call noundef ptr @_Z21pj_default_destructorP8PJconstsi(ptr noundef %13, i32 noundef 4096)
  store ptr %14, ptr %2, align 8
  store i32 1, ptr %5, align 4
  br label %93

15:                                               ; preds = %1
  %16 = load ptr, ptr %4, align 8, !tbaa !41
  %17 = load ptr, ptr %3, align 8, !tbaa !3
  %18 = getelementptr inbounds nuw %struct.PJconsts, ptr %17, i32 0, i32 11
  store ptr %16, ptr %18, align 8, !tbaa !43
  call void @llvm.lifetime.start.p0(i64 8, ptr %6) #9
  %19 = load ptr, ptr %3, align 8, !tbaa !3
  %20 = getelementptr inbounds nuw %struct.PJconsts, ptr %19, i32 0, i32 0
  %21 = load ptr, ptr %20, align 8, !tbaa !44
  %22 = load ptr, ptr %3, align 8, !tbaa !3
  %23 = getelementptr inbounds nuw %struct.PJconsts, ptr %22, i32 0, i32 3
  %24 = load ptr, ptr %23, align 8, !tbaa !45
  %25 = call i64 @_Z8pj_paramP6pj_ctxP8ARG_listPKc(ptr noundef %21, ptr noundef %24, ptr noundef @.str.1)
  %26 = getelementptr inbounds nuw %union.PROJVALUE, ptr %6, i32 0, i32 0
  store i64 %25, ptr %26, align 8
  %27 = load double, ptr %6, align 8, !tbaa !46
  %28 = load ptr, ptr %3, align 8, !tbaa !3
  %29 = getelementptr inbounds nuw %struct.PJconsts, ptr %28, i32 0, i32 60
  store double %27, ptr %29, align 8, !tbaa !47
  call void @llvm.lifetime.end.p0(i64 8, ptr %6) #9
  %30 = load ptr, ptr %3, align 8, !tbaa !3
  %31 = getelementptr inbounds nuw %struct.PJconsts, ptr %30, i32 0, i32 60
  %32 = load double, ptr %31, align 8, !tbaa !47
  %33 = fcmp olt double %32, 0xC01921FB54442D18
  br i1 %33, label %39, label %34

34:                                               ; preds = %15
  %35 = load ptr, ptr %3, align 8, !tbaa !3
  %36 = getelementptr inbounds nuw %struct.PJconsts, ptr %35, i32 0, i32 60
  %37 = load double, ptr %36, align 8, !tbaa !47
  %38 = fcmp ogt double %37, 0x401921FB54442D18
  br i1 %38, label %39, label %43

39:                                               ; preds = %34, %15
  %40 = load ptr, ptr %3, align 8, !tbaa !3
  call void (ptr, ptr, ...) @_Z14proj_log_errorPK8PJconstsPKcz(ptr noundef %40, ptr noundef @.str.2)
  %41 = load ptr, ptr %3, align 8, !tbaa !3
  %42 = call noundef ptr @_Z21pj_default_destructorP8PJconstsi(ptr noundef %41, i32 noundef 1027)
  store ptr %42, ptr %2, align 8
  store i32 1, ptr %5, align 4
  br label %93

43:                                               ; preds = %34
  call void @llvm.lifetime.start.p0(i64 8, ptr %7) #9
  %44 = load ptr, ptr %3, align 8, !tbaa !3
  %45 = getelementptr inbounds nuw %struct.PJconsts, ptr %44, i32 0, i32 0
  %46 = load ptr, ptr %45, align 8, !tbaa !44
  %47 = load ptr, ptr %3, align 8, !tbaa !3
  %48 = getelementptr inbounds nuw %struct.PJconsts, ptr %47, i32 0, i32 3
  %49 = load ptr, ptr %48, align 8, !tbaa !45
  %50 = call i64 @_Z8pj_paramP6pj_ctxP8ARG_listPKc(ptr noundef %46, ptr noundef %49, ptr noundef @.str.3)
  %51 = getelementptr inbounds nuw %union.PROJVALUE, ptr %7, i32 0, i32 0
  store i64 %50, ptr %51, align 8
  %52 = load double, ptr %7, align 8, !tbaa !46
  %53 = load ptr, ptr %4, align 8, !tbaa !41
  %54 = getelementptr inbounds nuw %"struct.(anonymous namespace)::pj_som_data", ptr %53, i32 0, i32 15
  store double %52, ptr %54, align 8, !tbaa !48
  call void @llvm.lifetime.end.p0(i64 8, ptr %7) #9
  %55 = load ptr, ptr %4, align 8, !tbaa !41
  %56 = getelementptr inbounds nuw %"struct.(anonymous namespace)::pj_som_data", ptr %55, i32 0, i32 15
  %57 = load double, ptr %56, align 8, !tbaa !48
  %58 = fcmp olt double %57, 0.000000e+00
  br i1 %58, label %64, label %59

59:                                               ; preds = %43
  %60 = load ptr, ptr %4, align 8, !tbaa !41
  %61 = getelementptr inbounds nuw %"struct.(anonymous namespace)::pj_som_data", ptr %60, i32 0, i32 15
  %62 = load double, ptr %61, align 8, !tbaa !48
  %63 = fcmp ogt double %62, 0x400921FB54442D18
  br i1 %63, label %64, label %68

64:                                               ; preds = %59, %43
  %65 = load ptr, ptr %3, align 8, !tbaa !3
  call void (ptr, ptr, ...) @_Z14proj_log_errorPK8PJconstsPKcz(ptr noundef %65, ptr noundef @.str.4)
  %66 = load ptr, ptr %3, align 8, !tbaa !3
  %67 = call noundef ptr @_Z21pj_default_destructorP8PJconstsi(ptr noundef %66, i32 noundef 1027)
  store ptr %67, ptr %2, align 8
  store i32 1, ptr %5, align 4
  br label %93

68:                                               ; preds = %59
  call void @llvm.lifetime.start.p0(i64 8, ptr %8) #9
  %69 = load ptr, ptr %3, align 8, !tbaa !3
  %70 = getelementptr inbounds nuw %struct.PJconsts, ptr %69, i32 0, i32 0
  %71 = load ptr, ptr %70, align 8, !tbaa !44
  %72 = load ptr, ptr %3, align 8, !tbaa !3
  %73 = getelementptr inbounds nuw %struct.PJconsts, ptr %72, i32 0, i32 3
  %74 = load ptr, ptr %73, align 8, !tbaa !45
  %75 = call i64 @_Z8pj_paramP6pj_ctxP8ARG_listPKc(ptr noundef %71, ptr noundef %74, ptr noundef @.str.5)
  %76 = getelementptr inbounds nuw %union.PROJVALUE, ptr %8, i32 0, i32 0
  store i64 %75, ptr %76, align 8
  %77 = load double, ptr %8, align 8, !tbaa !46
  %78 = load ptr, ptr %4, align 8, !tbaa !41
  %79 = getelementptr inbounds nuw %"struct.(anonymous namespace)::pj_som_data", ptr %78, i32 0, i32 9
  store double %77, ptr %79, align 8, !tbaa !50
  call void @llvm.lifetime.end.p0(i64 8, ptr %8) #9
  %80 = load ptr, ptr %4, align 8, !tbaa !41
  %81 = getelementptr inbounds nuw %"struct.(anonymous namespace)::pj_som_data", ptr %80, i32 0, i32 9
  %82 = load double, ptr %81, align 8, !tbaa !50
  %83 = fcmp olt double %82, 0.000000e+00
  br i1 %83, label %84, label %88

84:                                               ; preds = %68
  %85 = load ptr, ptr %3, align 8, !tbaa !3
  call void (ptr, ptr, ...) @_Z14proj_log_errorPK8PJconstsPKcz(ptr noundef %85, ptr noundef @.str.6)
  %86 = load ptr, ptr %3, align 8, !tbaa !3
  %87 = call noundef ptr @_Z21pj_default_destructorP8PJconstsi(ptr noundef %86, i32 noundef 1027)
  store ptr %87, ptr %2, align 8
  store i32 1, ptr %5, align 4
  br label %93

88:                                               ; preds = %68
  %89 = load ptr, ptr %4, align 8, !tbaa !41
  %90 = getelementptr inbounds nuw %"struct.(anonymous namespace)::pj_som_data", ptr %89, i32 0, i32 13
  store double 0.000000e+00, ptr %90, align 8, !tbaa !51
  %91 = load ptr, ptr %3, align 8, !tbaa !3
  %92 = call noundef ptr @_ZL9som_setupP8PJconsts(ptr noundef %91)
  store ptr %92, ptr %2, align 8
  store i32 1, ptr %5, align 4
  br label %93

93:                                               ; preds = %88, %84, %64, %39, %12
  call void @llvm.lifetime.end.p0(i64 8, ptr %4) #9
  %94 = load ptr, ptr %2, align 8
  ret ptr %94
}