; Function Attrs: mustprogress uwtable
define hidden noundef ptr @_Z32pj_projection_specific_setup_somP8PJconsts(ptr noundef %0) local_unnamed_addr #0 {
  %2 = tail call noalias dereferenceable_or_null(128) ptr @calloc(i64 noundef 1, i64 noundef 128) #8
  %3 = icmp eq ptr %2, null
  br i1 %3, label %4, label %6

4:                                                ; preds = %1
  %5 = tail call noundef ptr @_Z21pj_default_destructorP8PJconstsi(ptr noundef %0, i32 noundef 4096)
  br label %39

6:                                                ; preds = %1
  %7 = getelementptr inbounds nuw i8, ptr %0, i64 88
  store ptr %2, ptr %7, align 8, !tbaa !40
  %8 = load ptr, ptr %0, align 8, !tbaa !41
  %9 = getelementptr inbounds nuw i8, ptr %0, i64 24
  %10 = load ptr, ptr %9, align 8, !tbaa !42
  %11 = tail call i64 @_Z8pj_paramP6pj_ctxP8ARG_listPKc(ptr noundef %8, ptr noundef %10, ptr noundef nonnull @.str.1)
  %12 = bitcast i64 %11 to double
  %13 = getelementptr inbounds nuw i8, ptr %0, i64 440
  store i64 %11, ptr %13, align 8, !tbaa !43
  %14 = tail call double @llvm.fabs.f64(double %12)
  %or.cond = fcmp ogt double %14, 0x401921FB54442D18
  br i1 %or.cond, label %15, label %17

15:                                               ; preds = %6
  tail call void (ptr, ptr, ...) @_Z14proj_log_errorPK8PJconstsPKcz(ptr noundef nonnull %0, ptr noundef nonnull @.str.2)
  %16 = tail call noundef ptr @_Z21pj_default_destructorP8PJconstsi(ptr noundef nonnull %0, i32 noundef 1027)
  br label %39

17:                                               ; preds = %6
  %18 = load ptr, ptr %0, align 8, !tbaa !41
  %19 = load ptr, ptr %9, align 8, !tbaa !42
  %20 = tail call i64 @_Z8pj_paramP6pj_ctxP8ARG_listPKc(ptr noundef %18, ptr noundef %19, ptr noundef nonnull @.str.3)
  %21 = bitcast i64 %20 to double
  %22 = getelementptr inbounds nuw i8, ptr %2, i64 120
  store i64 %20, ptr %22, align 8, !tbaa !44
  %23 = fcmp olt double %21, 0.000000e+00
  %24 = fcmp ogt double %21, 0x400921FB54442D18
  %or.cond32 = or i1 %23, %24
  br i1 %or.cond32, label %25, label %27

25:                                               ; preds = %17
  tail call void (ptr, ptr, ...) @_Z14proj_log_errorPK8PJconstsPKcz(ptr noundef nonnull %0, ptr noundef nonnull @.str.4)
  %26 = tail call noundef ptr @_Z21pj_default_destructorP8PJconstsi(ptr noundef nonnull %0, i32 noundef 1027)
  br label %39

27:                                               ; preds = %17
  %28 = load ptr, ptr %0, align 8, !tbaa !41
  %29 = load ptr, ptr %9, align 8, !tbaa !42
  %30 = tail call i64 @_Z8pj_paramP6pj_ctxP8ARG_listPKc(ptr noundef %28, ptr noundef %29, ptr noundef nonnull @.str.5)
  %31 = bitcast i64 %30 to double
  %32 = getelementptr inbounds nuw i8, ptr %2, i64 72
  store i64 %30, ptr %32, align 8, !tbaa !46
  %33 = fcmp olt double %31, 0.000000e+00
  br i1 %33, label %34, label %36

34:                                               ; preds = %27
  tail call void (ptr, ptr, ...) @_Z14proj_log_errorPK8PJconstsPKcz(ptr noundef nonnull %0, ptr noundef nonnull @.str.6)
  %35 = tail call noundef ptr @_Z21pj_default_destructorP8PJconstsi(ptr noundef nonnull %0, i32 noundef 1027)
  br label %39

36:                                               ; preds = %27
  %37 = getelementptr inbounds nuw i8, ptr %2, i64 104
  store double 0.000000e+00, ptr %37, align 8, !tbaa !47
  %38 = tail call fastcc noundef ptr @_ZL9som_setupP8PJconsts(ptr noundef nonnull %0)
  br label %39

39:                                               ; preds = %36, %34, %25, %15, %4
  %.0 = phi ptr [ %5, %4 ], [ %16, %15 ], [ %26, %25 ], [ %35, %34 ], [ %0, %36 ]
  ret ptr %.0
}